target datalayout = "e-m:e-p270:32:32-p271:32:32-p272:64:64-i64:64-i128:128-f80:128-n8:16:32:64-S128"
target triple = "x86_64-unknown-linux-gnu"

%"class.cvc5::internal::NodeTemplate" = type { ptr }
%"class.cvc5::internal::theory::quantifiers::SygusEnumerator" = type { %"class.cvc5::internal::theory::quantifiers::EnumValGenerator", ptr, ptr, %"class.std::unique_ptr", ptr, i8, i8, i64, %"class.std::map", %"class.std::map.2", %"class.std::map.7", %"class.std::map.12", %"class.cvc5::internal::NodeTemplate", %"class.cvc5::internal::TypeNode", ptr, i32, %"class.std::unordered_set" }
%"class.cvc5::internal::theory::quantifiers::EnumValGenerator" = type { %"class.cvc5::internal::EnvObj" }
%"class.cvc5::internal::EnvObj" = type { ptr, ptr }
%"class.std::unique_ptr" = type { %"struct.std::__uniq_ptr_data" }
%"struct.std::__uniq_ptr_data" = type { %"class.std::__uniq_ptr_impl" }
%"class.std::__uniq_ptr_impl" = type { %"class.std::tuple" }
%"class.std::tuple" = type { %"struct.std::_Tuple_impl" }
%"struct.std::_Tuple_impl" = type { %"struct.std::_Head_base.1" }
%"struct.std::_Head_base.1" = type { ptr }
%"class.std::map" = type { %"class.std::_Rb_tree" }
%"class.std::_Rb_tree" = type { %"struct.std::_Rb_tree<cvc5::internal::TypeNode, std::pair<const cvc5::internal::TypeNode, cvc5::internal::theory::quantifiers::SygusEnumerator::TermCache>, std::_Select1st<std::pair<const cvc5::internal::TypeNode, cvc5::internal::theory::quantifiers::SygusEnumerator::TermCache>>, std::less<cvc5::internal::TypeNode>>::_Rb_tree_impl" }
%"struct.std::_Rb_tree<cvc5::internal::TypeNode, std::pair<const cvc5::internal::TypeNode, cvc5::internal::theory::quantifiers::SygusEnumerator::TermCache>, std::_Select1st<std::pair<const cvc5::internal::TypeNode, cvc5::internal::theory::quantifiers::SygusEnumerator::TermCache>>, std::less<cvc5::internal::TypeNode>>::_Rb_tree_impl" = type { %"struct.std::_Rb_tree_key_compare", %"struct.std::_Rb_tree_header" }
%"struct.std::_Rb_tree_key_compare" = type { %"struct.std::less" }
%"struct.std::less" = type { i8 }
%"struct.std::_Rb_tree_header" = type { %"struct.std::_Rb_tree_node_base", i64 }
%"struct.std::_Rb_tree_node_base" = type { i32, ptr, ptr, ptr }
%"class.std::map.2" = type { %"class.std::_Rb_tree.3" }
%"class.std::_Rb_tree.3" = type { %"struct.std::_Rb_tree<cvc5::internal::TypeNode, std::pair<const cvc5::internal::TypeNode, cvc5::internal::theory::quantifiers::SygusEnumerator::TermEnumMaster>, std::_Select1st<std::pair<const cvc5::internal::TypeNode, cvc5::internal::theory::quantifiers::SygusEnumerator::TermEnumMaster>>, std::less<cvc5::internal::TypeNode>>::_Rb_tree_impl" }
%"struct.std::_Rb_tree<cvc5::internal::TypeNode, std::pair<const cvc5::internal::TypeNode, cvc5::internal::theory::quantifiers::SygusEnumerator::TermEnumMaster>, std::_Select1st<std::pair<const cvc5::internal::TypeNode, cvc5::internal::theory::quantifiers::SygusEnumerator::TermEnumMaster>>, std::less<cvc5::internal::TypeNode>>::_Rb_tree_impl" = type { %"struct.std::_Rb_tree_key_compare", %"struct.std::_Rb_tree_header" }
%"class.std::map.7" = type { %"class.std::_Rb_tree.8" }
%"class.std::_Rb_tree.8" = type { %"struct.std::_Rb_tree<cvc5::internal::TypeNode, std::pair<const cvc5::internal::TypeNode, cvc5::internal::theory::quantifiers::SygusEnumerator::TermEnumMasterFv>, std::_Select1st<std::pair<const cvc5::internal::TypeNode, cvc5::internal::theory::quantifiers::SygusEnumerator::TermEnumMasterFv>>, std::less<cvc5::internal::TypeNode>>::_Rb_tree_impl" }
%"struct.std::_Rb_tree<cvc5::internal::TypeNode, std::pair<const cvc5::internal::TypeNode, cvc5::internal::theory::quantifiers::SygusEnumerator::TermEnumMasterFv>, std::_Select1st<std::pair<const cvc5::internal::TypeNode, cvc5::internal::theory::quantifiers::SygusEnumerator::TermEnumMasterFv>>, std::less<cvc5::internal::TypeNode>>::_Rb_tree_impl" = type { %"struct.std::_Rb_tree_key_compare", %"struct.std::_Rb_tree_header" }
%"class.std::map.12" = type { %"class.std::_Rb_tree.13" }
%"class.std::_Rb_tree.13" = type { %"struct.std::_Rb_tree<cvc5::internal::TypeNode, std::pair<const cvc5::internal::TypeNode, std::unique_ptr<cvc5::internal::theory::quantifiers::SygusEnumerator::TermEnumMasterInterp>>, std::_Select1st<std::pair<const cvc5::internal::TypeNode, std::unique_ptr<cvc5::internal::theory::quantifiers::SygusEnumerator::TermEnumMasterInterp>>>, std::less<cvc5::internal::TypeNode>>::_Rb_tree_impl" }
%"struct.std::_Rb_tree<cvc5::internal::TypeNode, std::pair<const cvc5::internal::TypeNode, std::unique_ptr<cvc5::internal::theory::quantifiers::SygusEnumerator::TermEnumMasterInterp>>, std::_Select1st<std::pair<const cvc5::internal::TypeNode, std::unique_ptr<cvc5::internal::theory::quantifiers::SygusEnumerator::TermEnumMasterInterp>>>, std::less<cvc5::internal::TypeNode>>::_Rb_tree_impl" = type { %"struct.std::_Rb_tree_key_compare", %"struct.std::_Rb_tree_header" }
%"class.cvc5::internal::TypeNode" = type { ptr }
%"class.std::unordered_set" = type { %"class.std::_Hashtable" }
%"class.std::_Hashtable" = type { ptr, i64, %"struct.std::__detail::_Hash_node_base", i64, %"struct.std::__detail::_Prime_rehash_policy", ptr }
%"struct.std::__detail::_Hash_node_base" = type { ptr }
%"struct.std::__detail::_Prime_rehash_policy" = type { float, i64 }

; Function Attrs: mustprogress uwtable
define hidden noundef zeroext i1 @_ZN4cvc58internal6theory11quantifiers15SygusEnumerator9incrementEv(ptr noundef nonnull align 8 dereferenceable(344) %this) unnamed_addr #4 align 2 {
entry:
  %this.addr = alloca ptr, align 8
  store ptr %this, ptr %this.addr, align 8
  %this1 = load ptr, ptr %this.addr, align 8
  %d_tlEnum = getelementptr inbounds %"class.cvc5::internal::theory::quantifiers::SygusEnumerator", ptr %this1, i32 0, i32 14
  %0 = load ptr, ptr %d_tlEnum, align 8
  %vtable = load ptr, ptr %0, align 8
  %vfn = getelementptr inbounds ptr, ptr %vtable, i64 3
  %1 = load ptr, ptr %vfn, align 8
  %call = call noundef zeroext i1 %1(ptr noundef nonnull align 8 dereferenceable(28) %0)
  ret i1 %call
}