; Function Attrs: mustprogress uwtable
define hidden noundef zeroext i1 @_ZN4cvc58internal6theory11quantifiers15SygusEnumerator9incrementEv(ptr nocapture noundef nonnull readonly align 8 dereferenceable(344) %this) unnamed_addr #3 align 2 {
entry:
  %d_tlEnum = getelementptr inbounds i8, ptr %this, i64 272
  %0 = load ptr, ptr %d_tlEnum, align 8
  %vtable = load ptr, ptr %0, align 8
  %vfn = getelementptr inbounds i8, ptr %vtable, i64 24
  %1 = load ptr, ptr %vfn, align 8
  %call = tail call noundef zeroext i1 %1(ptr noundef nonnull align 8 dereferenceable(28) %0)
  ret i1 %call
}